; ModuleID = '40/1601.c'
source_filename = "40/1601.c"
target datalayout = "e-m:e-p270:32:32-p271:32:32-p272:64:64-i64:64-f80:128-n8:16:32:64-S128"
target triple = "x86_64-pc-linux-gnu"

@.str = private unnamed_addr constant [4 x i8] c"%lf\00", align 1
@.str.1 = private unnamed_addr constant [14 x i8] c"Invalid input\00", align 1
@.str.2 = private unnamed_addr constant [6 x i8] c"%.4lf\00", align 1

; Function Attrs: noinline nounwind uwtable
define dso_local void @main() #0 {
  %1 = alloca i32, align 4
  %2 = alloca [5 x double], align 16
  store i32 0, i32* %1, align 4
  br label %3

3:                                                ; preds = %11, %0
  %4 = load i32, i32* %1, align 4
  %5 = icmp sle i32 %4, 4
  br i1 %5, label %6, label %14

6:                                                ; preds = %3
  %7 = load i32, i32* %1, align 4
  %8 = sext i32 %7 to i64
  %9 = getelementptr inbounds [5 x double], [5 x double]* %2, i64 0, i64 %8
  %10 = call i32 (i8*, ...) @__isoc99_scanf(i8* getelementptr inbounds ([4 x i8], [4 x i8]* @.str, i64 0, i64 0), double* %9)
  br label %11

11:                                               ; preds = %6
  %12 = load i32, i32* %1, align 4
  %13 = add nsw i32 %12, 1
  store i32 %13, i32* %1, align 4
  br label %3

14:                                               ; preds = %3
  %15 = getelementptr inbounds [5 x double], [5 x double]* %2, i64 0, i64 0
  %16 = load double, double* %15, align 16
  %17 = getelementptr inbounds [5 x double], [5 x double]* %2, i64 0, i64 1
  %18 = load double, double* %17, align 8
  %19 = getelementptr inbounds [5 x double], [5 x double]* %2, i64 0, i64 2
  %20 = load double, double* %19, align 16
  %21 = getelementptr inbounds [5 x double], [5 x double]* %2, i64 0, i64 3
  %22 = load double, double* %21, align 8
  %23 = getelementptr inbounds [5 x double], [5 x double]* %2, i64 0, i64 4
  %24 = load double, double* %23, align 16
  %25 = call double @s(double %16, double %18, double %20, double %22, double %24)
  %26 = fcmp olt double %25, 0.000000e+00
  br i1 %26, label %27, label %29

27:                                               ; preds = %14
  %28 = call i32 (i8*, ...) @printf(i8* getelementptr inbounds ([14 x i8], [14 x i8]* @.str.1, i64 0, i64 0))
  br label %43

29:                                               ; preds = %14
  %30 = getelementptr inbounds [5 x double], [5 x double]* %2, i64 0, i64 0
  %31 = load double, double* %30, align 16
  %32 = getelementptr inbounds [5 x double], [5 x double]* %2, i64 0, i64 1
  %33 = load double, double* %32, align 8
  %34 = getelementptr inbounds [5 x double], [5 x double]* %2, i64 0, i64 2
  %35 = load double, double* %34, align 16
  %36 = getelementptr inbounds [5 x double], [5 x double]* %2, i64 0, i64 3
  %37 = load double, double* %36, align 8
  %38 = getelementptr inbounds [5 x double], [5 x double]* %2, i64 0, i64 4
  %39 = load double, double* %38, align 16
  %40 = call double @s(double %31, double %33, double %35, double %37, double %39)
  %41 = call double @sqrt(double %40) #3
  %42 = call i32 (i8*, ...) @printf(i8* getelementptr inbounds ([6 x i8], [6 x i8]* @.str.2, i64 0, i64 0), double %41)
  br label %43

43:                                               ; preds = %29, %27
  ret void
}

declare dso_local i32 @__isoc99_scanf(i8*, ...) #1

; Function Attrs: noinline nounwind uwtable
define dso_local double @s(double %0, double %1, double %2, double %3, double %4) #0 {
  %6 = alloca double, align 8
  %7 = alloca double, align 8
  %8 = alloca double, align 8
  %9 = alloca double, align 8
  %10 = alloca double, align 8
  %11 = alloca double, align 8
  %12 = alloca double, align 8
  store double %0, double* %6, align 8
  store double %1, double* %7, align 8
  store double %2, double* %8, align 8
  store double %3, double* %9, align 8
  store double %4, double* %10, align 8
  %13 = load double, double* %10, align 8
  %14 = fdiv double %13, 3.600000e+02
  %15 = fmul double %14, 0x400921FB4D12D84A
  store double %15, double* %10, align 8
  %16 = load double, double* %6, align 8
  %17 = load double, double* %7, align 8
  %18 = fadd double %16, %17
  %19 = load double, double* %8, align 8
  %20 = fadd double %18, %19
  %21 = load double, double* %9, align 8
  %22 = fadd double %20, %21
  %23 = fdiv double %22, 2.000000e+00
  store double %23, double* %12, align 8
  %24 = load double, double* %12, align 8
  %25 = load double, double* %6, align 8
  %26 = fsub double %24, %25
  %27 = load double, double* %12, align 8
  %28 = load double, double* %7, align 8
  %29 = fsub double %27, %28
  %30 = fmul double %26, %29
  %31 = load double, double* %12, align 8
  %32 = load double, double* %8, align 8
  %33 = fsub double %31, %32
  %34 = fmul double %30, %33
  %35 = load double, double* %12, align 8
  %36 = load double, double* %9, align 8
  %37 = fsub double %35, %36
  %38 = fmul double %34, %37
  %39 = load double, double* %6, align 8
  %40 = load double, double* %7, align 8
  %41 = fmul double %39, %40
  %42 = load double, double* %8, align 8
  %43 = fmul double %41, %42
  %44 = load double, double* %9, align 8
  %45 = fmul double %43, %44
  %46 = load double, double* %10, align 8
  %47 = call double @cos(double %46) #3
  %48 = fmul double %45, %47
  %49 = load double, double* %10, align 8
  %50 = call double @cos(double %49) #3
  %51 = fmul double %48, %50
  %52 = fsub double %38, %51
  store double %52, double* %11, align 8
  %53 = load double, double* %11, align 8
  ret double %53
}

declare dso_local i32 @printf(i8*, ...) #1

; Function Attrs: nounwind
declare dso_local double @sqrt(double) #2

; Function Attrs: nounwind
declare dso_local double @cos(double) #2


!llvm.module.flags = !{!0}
!llvm.ident = !{!1}

!0 = !{i32 1, !"wchar_size", i32 4}
!1 = !{!"clang version 10.0.0-4ubuntu1 "}
